; Function Attrs: mustprogress uwtable
define hidden void @_ZN7min_cut8add_edgeEjjj(ptr noundef nonnull align 8 dereferenceable(24) %0, i32 noundef %1, i32 noundef %2, i32 noundef %3) local_unnamed_addr #3 align 2 personality ptr @__gxx_personality_v0 {
  %5 = add i32 %1, 1
  %6 = load ptr, ptr %0, align 8, !tbaa !9
  %7 = icmp eq ptr %6, null
  br i1 %7, label %_ZNK6vectorI7svectorIN7min_cut4edgeEjELb1EjE4sizeEv.exit.i, label %_ZNK6vectorI7svectorIN7min_cut4edgeEjELb1EjE4sizeEv.exit.thread.i

_ZNK6vectorI7svectorIN7min_cut4edgeEjELb1EjE4sizeEv.exit.i: ; preds = %4
  %.not.i = icmp eq i32 %5, 0
  br i1 %.not.i, label %_ZN6vectorI7svectorIN7min_cut4edgeEjELb1EjE7reserveEj.exit, label %_ZNK6vectorI7svectorIN7min_cut4edgeEjELb1EjE4sizeEv.exit.i.i.preheader

_ZNK6vectorI7svectorIN7min_cut4edgeEjELb1EjE4sizeEv.exit.thread.i: ; preds = %4
  %8 = getelementptr inbounds i8, ptr %6, i64 -4
  %9 = load i32, ptr %8, align 4, !tbaa !12
  %10 = icmp ugt i32 %5, %9
  br i1 %10, label %_ZNK6vectorI7svectorIN7min_cut4edgeEjELb1EjE4sizeEv.exit.i.i.preheader, label %_ZN6vectorI7svectorIN7min_cut4edgeEjELb1EjE7reserveEj.exit

_ZNK6vectorI7svectorIN7min_cut4edgeEjELb1EjE4sizeEv.exit.i.i.preheader: ; preds = %_ZNK6vectorI7svectorIN7min_cut4edgeEjELb1EjE4sizeEv.exit.i, %_ZNK6vectorI7svectorIN7min_cut4edgeEjELb1EjE4sizeEv.exit.thread.i
  %.ph = phi ptr [ %6, %_ZNK6vectorI7svectorIN7min_cut4edgeEjELb1EjE4sizeEv.exit.thread.i ], [ null, %_ZNK6vectorI7svectorIN7min_cut4edgeEjELb1EjE4sizeEv.exit.i ]
  %.0.i16.i.i.ph = phi i32 [ %9, %_ZNK6vectorI7svectorIN7min_cut4edgeEjELb1EjE4sizeEv.exit.thread.i ], [ 0, %_ZNK6vectorI7svectorIN7min_cut4edgeEjELb1EjE4sizeEv.exit.i ]
  br label %_ZNK6vectorI7svectorIN7min_cut4edgeEjELb1EjE4sizeEv.exit.i.i

_ZNK6vectorI7svectorIN7min_cut4edgeEjELb1EjE4sizeEv.exit.i.i: ; preds = %_ZNK6vectorI7svectorIN7min_cut4edgeEjELb1EjE4sizeEv.exit.i.i.preheader, %_ZNK6vectorI7svectorIN7min_cut4edgeEjELb1EjE8capacityEv.exit.thread.i.i
  %11 = phi ptr [ %.pr.pre.i.i, %_ZNK6vectorI7svectorIN7min_cut4edgeEjELb1EjE8capacityEv.exit.thread.i.i ], [ %.ph, %_ZNK6vectorI7svectorIN7min_cut4edgeEjELb1EjE4sizeEv.exit.i.i.preheader ]
  %12 = icmp eq ptr %11, null
  br i1 %12, label %_ZNK6vectorI7svectorIN7min_cut4edgeEjELb1EjE8capacityEv.exit.thread.i.i, label %_ZNK6vectorI7svectorIN7min_cut4edgeEjELb1EjE8capacityEv.exit.i.i

_ZNK6vectorI7svectorIN7min_cut4edgeEjELb1EjE8capacityEv.exit.i.i: ; preds = %_ZNK6vectorI7svectorIN7min_cut4edgeEjELb1EjE4sizeEv.exit.i.i
  %13 = getelementptr inbounds i8, ptr %11, i64 -8
  %14 = load i32, ptr %13, align 4, !tbaa !12
  %15 = icmp ugt i32 %5, %14
  br i1 %15, label %_ZNK6vectorI7svectorIN7min_cut4edgeEjELb1EjE8capacityEv.exit.thread.i.i, label %16

_ZNK6vectorI7svectorIN7min_cut4edgeEjELb1EjE8capacityEv.exit.thread.i.i: ; preds = %_ZNK6vectorI7svectorIN7min_cut4edgeEjELb1EjE8capacityEv.exit.i.i, %_ZNK6vectorI7svectorIN7min_cut4edgeEjELb1EjE4sizeEv.exit.i.i
  tail call void @_ZN6vectorI7svectorIN7min_cut4edgeEjELb1EjE13expand_vectorEv(ptr noundef nonnull align 8 dereferenceable(8) %0)
  %.pr.pre.i.i = load ptr, ptr %0, align 8, !tbaa !9
  br label %_ZNK6vectorI7svectorIN7min_cut4edgeEjELb1EjE4sizeEv.exit.i.i, !llvm.loop !20

16:                                               ; preds = %_ZNK6vectorI7svectorIN7min_cut4edgeEjELb1EjE8capacityEv.exit.i.i
  %17 = getelementptr inbounds i8, ptr %11, i64 -4
  store i32 %5, ptr %17, align 4, !tbaa !12
  %.not1218.i.i = icmp eq i32 %.0.i16.i.i.ph, %5
  br i1 %.not1218.i.i, label %_ZN6vectorI7svectorIN7min_cut4edgeEjELb1EjE7reserveEj.exit, label %.lr.ph.preheader.i.i

.lr.ph.preheader.i.i:                             ; preds = %16
  %18 = zext i32 %5 to i64
  %19 = zext i32 %.0.i16.i.i.ph to i64
  %20 = getelementptr %class.svector.1, ptr %11, i64 %19
  %21 = sub nsw i64 %18, %19
  %22 = shl nsw i64 %21, 3
  tail call void @llvm.memset.p0.i64(ptr align 8 %20, i8 0, i64 %22, i1 false), !tbaa !3
  br label %_ZN6vectorI7svectorIN7min_cut4edgeEjELb1EjE7reserveEj.exit

_ZN6vectorI7svectorIN7min_cut4edgeEjELb1EjE7reserveEj.exit: ; preds = %_ZNK6vectorI7svectorIN7min_cut4edgeEjELb1EjE4sizeEv.exit.i, %_ZNK6vectorI7svectorIN7min_cut4edgeEjELb1EjE4sizeEv.exit.thread.i, %16, %.lr.ph.preheader.i.i
  %23 = phi ptr [ null, %_ZNK6vectorI7svectorIN7min_cut4edgeEjELb1EjE4sizeEv.exit.i ], [ %6, %_ZNK6vectorI7svectorIN7min_cut4edgeEjELb1EjE4sizeEv.exit.thread.i ], [ %11, %16 ], [ %11, %.lr.ph.preheader.i.i ]
  %24 = zext i32 %1 to i64
  %25 = getelementptr inbounds nuw %class.svector.1, ptr %23, i64 %24
  %26 = load ptr, ptr %25, align 8, !tbaa !3
  %27 = icmp eq ptr %26, null
  br i1 %27, label %34, label %28

28:                                               ; preds = %_ZN6vectorI7svectorIN7min_cut4edgeEjELb1EjE7reserveEj.exit
  %29 = getelementptr inbounds i8, ptr %26, i64 -4
  %30 = load i32, ptr %29, align 4, !tbaa !12
  %31 = getelementptr inbounds i8, ptr %26, i64 -8
  %32 = load i32, ptr %31, align 4, !tbaa !12
  %33 = icmp eq i32 %30, %32
  br i1 %33, label %34, label %_ZN6vectorIN7min_cut4edgeELb0EjE9push_backEOS1_.exit

34:                                               ; preds = %28, %_ZN6vectorI7svectorIN7min_cut4edgeEjELb1EjE7reserveEj.exit
  tail call void @_ZN6vectorIN7min_cut4edgeELb0EjE13expand_vectorEv(ptr noundef nonnull align 8 dereferenceable(8) %25)
  %.pre.i = load ptr, ptr %25, align 8, !tbaa !3
  %.phi.trans.insert.i = getelementptr inbounds i8, ptr %.pre.i, i64 -4
  %.pre2.i = load i32, ptr %.phi.trans.insert.i, align 4, !tbaa !12
  br label %_ZN6vectorIN7min_cut4edgeELb0EjE9push_backEOS1_.exit

_ZN6vectorIN7min_cut4edgeELb0EjE9push_backEOS1_.exit: ; preds = %28, %34
  %35 = phi i32 [ %.pre2.i, %34 ], [ %30, %28 ]
  %36 = phi ptr [ %.pre.i, %34 ], [ %26, %28 ]
  %37 = zext i32 %35 to i64
  %38 = getelementptr inbounds nuw %"struct.min_cut::edge", ptr %36, i64 %37
  %.sroa.4.0.insert.ext = zext i32 %3 to i64
  %.sroa.4.0.insert.shift = shl nuw i64 %.sroa.4.0.insert.ext, 32
  %.sroa.0.0.insert.ext = zext i32 %2 to i64
  %.sroa.0.0.insert.insert = or disjoint i64 %.sroa.4.0.insert.shift, %.sroa.0.0.insert.ext
  store i64 %.sroa.0.0.insert.insert, ptr %38, align 4
  %39 = load ptr, ptr %25, align 8, !tbaa !3
  %40 = getelementptr inbounds i8, ptr %39, i64 -4
  %41 = load i32, ptr %40, align 4, !tbaa !12
  %42 = add i32 %41, 1
  store i32 %42, ptr %40, align 4, !tbaa !12
  ret void
}